target datalayout = "e-m:e-p270:32:32-p271:32:32-p272:64:64-i64:64-i128:128-f80:128-n8:16:32:64-S128"
target triple = "x86_64-pc-linux-gnu"

; Function Attrs: mustprogress uwtable
define linkonce_odr void @_ZN6icu_7712SharedObject8clearPtrINS_18SharedNumberFormatEEEvRPKT_(ptr noundef nonnull align 8 dereferenceable(8) %0) #1 comdat align 2 {
  %2 = alloca ptr, align 8
  store ptr %0, ptr %2, align 8, !tbaa !69
  %3 = load ptr, ptr %2, align 8, !tbaa !69
  %4 = load ptr, ptr %3, align 8, !tbaa !55
  %5 = icmp ne ptr %4, null
  br i1 %5, label %6, label %10

6:                                                ; preds = %1
  %7 = load ptr, ptr %2, align 8, !tbaa !69
  %8 = load ptr, ptr %7, align 8, !tbaa !55
  call void @_ZNK6icu_7712SharedObject9removeRefEv(ptr noundef nonnull align 8 dereferenceable(24) %8)
  %9 = load ptr, ptr %2, align 8, !tbaa !69
  store ptr null, ptr %9, align 8, !tbaa !55
  br label %10

10:                                               ; preds = %6, %1
  ret void
}

; Function Attrs: mustprogress uwtable
define internal void @_ZN6icu_77L26freeSharedNumberFormattersEPPKNS_18SharedNumberFormatE(ptr noundef %0) #1 {
  %2 = alloca ptr, align 8
  %3 = alloca i32, align 4
  store ptr %0, ptr %2, align 8, !tbaa !69
  call void @llvm.lifetime.start.p0(i64 4, ptr %3) #12
  store i32 0, ptr %3, align 4, !tbaa !14
  br label %4

4:                                                ; preds = %13, %1
  %5 = load i32, ptr %3, align 4, !tbaa !14
  %6 = icmp slt i32 %5, 38
  br i1 %6, label %8, label %7

7:                                                ; preds = %4
  call void @llvm.lifetime.end.p0(i64 4, ptr %3) #12
  br label %16

8:                                                ; preds = %4
  %9 = load ptr, ptr %2, align 8, !tbaa !69
  %10 = load i32, ptr %3, align 4, !tbaa !14
  %11 = sext i32 %10 to i64
  %12 = getelementptr inbounds ptr, ptr %9, i64 %11
  call void @_ZN6icu_7712SharedObject8clearPtrINS_18SharedNumberFormatEEEvRPKT_(ptr noundef nonnull align 8 dereferenceable(8) %12)
  br label %13

13:                                               ; preds = %8
  %14 = load i32, ptr %3, align 4, !tbaa !14
  %15 = add nsw i32 %14, 1
  store i32 %15, ptr %3, align 4, !tbaa !14
  br label %4, !llvm.loop !70

16:                                               ; preds = %7
  %17 = load ptr, ptr %2, align 8, !tbaa !69
  call void @uprv_free_77(ptr noundef %17)
  ret void
}