; Function Attrs: mustprogress uwtable
define internal fastcc void @_ZN6icu_77L26freeSharedNumberFormattersEPPKNS_18SharedNumberFormatE(ptr noundef nonnull %0) unnamed_addr #1 {
  br label %3

2:                                                ; preds = %_ZN6icu_7712SharedObject8clearPtrINS_18SharedNumberFormatEEEvRPKT_.exit
  tail call void @uprv_free_77(ptr noundef nonnull %0)
  ret void

3:                                                ; preds = %1, %_ZN6icu_7712SharedObject8clearPtrINS_18SharedNumberFormatEEEvRPKT_.exit
  %indvars.iv = phi i64 [ 0, %1 ], [ %indvars.iv.next, %_ZN6icu_7712SharedObject8clearPtrINS_18SharedNumberFormatEEEvRPKT_.exit ]
  %4 = getelementptr inbounds nuw ptr, ptr %0, i64 %indvars.iv
  %5 = load ptr, ptr %4, align 8, !tbaa !42
  %.not.i = icmp eq ptr %5, null
  br i1 %.not.i, label %_ZN6icu_7712SharedObject8clearPtrINS_18SharedNumberFormatEEEvRPKT_.exit, label %6

6:                                                ; preds = %3
  tail call void @_ZNK6icu_7712SharedObject9removeRefEv(ptr noundef nonnull align 8 dereferenceable(24) %5)
  store ptr null, ptr %4, align 8, !tbaa !42
  br label %_ZN6icu_7712SharedObject8clearPtrINS_18SharedNumberFormatEEEvRPKT_.exit

_ZN6icu_7712SharedObject8clearPtrINS_18SharedNumberFormatEEEvRPKT_.exit: ; preds = %3, %6
  %indvars.iv.next = add nuw nsw i64 %indvars.iv, 1
  %exitcond.not = icmp eq i64 %indvars.iv.next, 38
  br i1 %exitcond.not, label %2, label %3, !llvm.loop !47
}